target datalayout = "e-m:e-p270:32:32-p271:32:32-p272:64:64-i64:64-i128:128-f80:128-n8:16:32:64-S128"
target triple = "x86_64-pc-linux-gnu"

@hf_gryphon_ldf_ioctl_setflags_flags = internal global i32 0, align 4
@hf_gryphon_ldf_num_frames = internal global i32 0, align 4
@hf_gryphon_ldf_get_frame = internal global i32 0, align 4
@.str.1039 = private unnamed_addr constant [6 x i8] c"0x%x \00", align 1

; Function Attrs: null_pointer_is_valid sspstrong uwtable
define internal i32 @resp_ldf_get_frames(ptr noundef %0, i32 noundef %1, ptr noundef %2) #0 {
  %4 = alloca ptr, align 8
  %5 = alloca i32, align 4
  %6 = alloca ptr, align 8
  %7 = alloca i32, align 4
  %8 = alloca i16, align 2
  %9 = alloca i8, align 1
  store ptr %0, ptr %4, align 8
  store i32 %1, ptr %5, align 4
  store ptr %2, ptr %6, align 8
  call void @llvm.lifetime.start.p0(i64 4, ptr %7) #7
  call void @llvm.lifetime.start.p0(i64 2, ptr %8) #7
  call void @llvm.lifetime.start.p0(i64 1, ptr %9) #7
  %10 = load ptr, ptr %4, align 8
  %11 = load i32, ptr %5, align 4
  %12 = call zeroext i16 @tvb_get_ntohs(ptr noundef %10, i32 noundef %11)
  store i16 %12, ptr %8, align 2
  %13 = load ptr, ptr %6, align 8
  %14 = load i32, ptr @hf_gryphon_ldf_num_frames, align 4
  %15 = load ptr, ptr %4, align 8
  %16 = load i32, ptr %5, align 4
  %17 = call ptr @proto_tree_add_item(ptr noundef %13, i32 noundef %14, ptr noundef %15, i32 noundef %16, i32 noundef 2, i32 noundef 0)
  %18 = load i32, ptr %5, align 4
  %19 = add i32 %18, 2
  store i32 %19, ptr %5, align 4
  br label %20

20:                                               ; preds = %24, %3
  %21 = load i16, ptr %8, align 2
  %22 = zext i16 %21 to i32
  %23 = icmp sgt i32 %22, 0
  br i1 %23, label %24, label %51

24:                                               ; preds = %20
  %25 = load ptr, ptr %4, align 8
  %26 = load i32, ptr %5, align 4
  %27 = call zeroext i8 @tvb_get_uint8(ptr noundef %25, i32 noundef %26)
  store i8 %27, ptr %9, align 1
  %28 = load ptr, ptr %6, align 8
  %29 = load i32, ptr @hf_gryphon_ldf_ioctl_setflags_flags, align 4
  %30 = load ptr, ptr %4, align 8
  %31 = load i32, ptr %5, align 4
  %32 = load i8, ptr %9, align 1
  %33 = zext i8 %32 to i32
  %34 = load i8, ptr %9, align 1
  %35 = zext i8 %34 to i32
  %36 = call ptr (ptr, i32, ptr, i32, i32, i32, ptr, ...) @proto_tree_add_uint_format_value(ptr noundef %28, i32 noundef %29, ptr noundef %30, i32 noundef %31, i32 noundef 1, i32 noundef %33, ptr noundef @.str.1039, i32 noundef %35)
  %37 = load i32, ptr %5, align 4
  %38 = add i32 %37, 1
  store i32 %38, ptr %5, align 4
  %39 = load ptr, ptr %6, align 8
  %40 = load i32, ptr @hf_gryphon_ldf_get_frame, align 4
  %41 = load ptr, ptr %4, align 8
  %42 = load i32, ptr %5, align 4
  %43 = call ptr @proto_tree_add_item_ret_length(ptr noundef %39, i32 noundef %40, ptr noundef %41, i32 noundef %42, i32 noundef -1, i32 noundef 0, ptr noundef %7)
  %44 = load i32, ptr %7, align 4
  %45 = load i32, ptr %5, align 4
  %46 = add i32 %45, %44
  store i32 %46, ptr %5, align 4
  %47 = load i16, ptr %8, align 2
  %48 = zext i16 %47 to i32
  %49 = sub i32 %48, 1
  %50 = trunc i32 %49 to i16
  store i16 %50, ptr %8, align 2
  br label %20, !llvm.loop !35

51:                                               ; preds = %20
  %52 = load i32, ptr %5, align 4
  call void @llvm.lifetime.end.p0(i64 1, ptr %9) #7
  call void @llvm.lifetime.end.p0(i64 2, ptr %8) #7
  call void @llvm.lifetime.end.p0(i64 4, ptr %7) #7
  ret i32 %52
}