; Function Attrs: null_pointer_is_valid sspstrong uwtable
define internal fastcc i32 @resp_ldf_get_frames(ptr noundef %0, ptr noundef %1) unnamed_addr #0 {
  %3 = alloca i32, align 4
  call void @llvm.lifetime.start.p0(i64 4, ptr nonnull %3) #5
  %4 = tail call zeroext i16 @tvb_get_ntohs(ptr noundef %0, i32 noundef 16)
  %5 = load i32, ptr @hf_gryphon_ldf_num_frames, align 4
  %6 = tail call ptr @proto_tree_add_item(ptr noundef %1, i32 noundef %5, ptr noundef %0, i32 noundef 16, i32 noundef 2, i32 noundef 0)
  %.not22 = icmp eq i16 %4, 0
  br i1 %.not22, label %._crit_edge, label %.lr.ph

.lr.ph:                                           ; preds = %2, %.lr.ph
  %.024 = phi i32 [ %15, %.lr.ph ], [ 18, %2 ]
  %.02023 = phi i16 [ %16, %.lr.ph ], [ %4, %2 ]
  %7 = call zeroext i8 @tvb_get_uint8(ptr noundef %0, i32 noundef %.024)
  %8 = load i32, ptr @hf_gryphon_ldf_ioctl_setflags_flags, align 4
  %9 = zext i8 %7 to i32
  %10 = call ptr (ptr, i32, ptr, i32, i32, i32, ptr, ...) @proto_tree_add_uint_format_value(ptr noundef %1, i32 noundef %8, ptr noundef %0, i32 noundef %.024, i32 noundef 1, i32 noundef %9, ptr noundef nonnull @.str.1039, i32 noundef %9)
  %11 = add i32 %.024, 1
  %12 = load i32, ptr @hf_gryphon_ldf_get_frame, align 4
  %13 = call ptr @proto_tree_add_item_ret_length(ptr noundef %1, i32 noundef %12, ptr noundef %0, i32 noundef %11, i32 noundef -1, i32 noundef 0, ptr noundef nonnull %3)
  %14 = load i32, ptr %3, align 4
  %15 = add i32 %14, %11
  %16 = add i16 %.02023, -1
  %.not = icmp eq i16 %16, 0
  br i1 %.not, label %._crit_edge, label %.lr.ph, !llvm.loop !35

._crit_edge:                                      ; preds = %.lr.ph, %2
  %.0.lcssa = phi i32 [ 18, %2 ], [ %15, %.lr.ph ]
  call void @llvm.lifetime.end.p0(i64 4, ptr nonnull %3) #5
  ret i32 %.0.lcssa
}